target datalayout = "e-m:e-p270:32:32-p271:32:32-p272:64:64-i64:64-i128:128-f80:128-n8:16:32:64-S128"
target triple = "x86_64-pc-linux-gnu"

@.str.3 = private unnamed_addr constant [1 x i8] zeroinitializer, align 1
@.str.268 = private unnamed_addr constant [58 x i8] c"str: foreach row: next<=0: len %zd, i %zd, w %zd, buf %s\0A\00", align 1

; Function Attrs: nounwind uwtable
define internal i64 @str_for_each_row(ptr noundef %0, i64 noundef %1, i64 noundef %2, i64 noundef %3, i64 noundef %4, ptr noundef %5, ptr noundef %6, ptr noundef %7) #0 {
  %9 = alloca i64, align 8
  %10 = alloca ptr, align 8
  %11 = alloca i64, align 8
  %12 = alloca i64, align 8
  %13 = alloca i64, align 8
  %14 = alloca i64, align 8
  %15 = alloca ptr, align 8
  %16 = alloca ptr, align 8
  %17 = alloca ptr, align 8
  %18 = alloca i64, align 8
  %19 = alloca i64, align 8
  %20 = alloca i64, align 8
  %21 = alloca i64, align 8
  %22 = alloca i64, align 8
  %23 = alloca i64, align 8
  %24 = alloca i64, align 8
  %25 = alloca i32, align 4
  %26 = alloca i64, align 8
  store ptr %0, ptr %10, align 8, !tbaa !11
  store i64 %1, ptr %11, align 8, !tbaa !9
  store i64 %2, ptr %12, align 8, !tbaa !9
  store i64 %3, ptr %13, align 8, !tbaa !9
  store i64 %4, ptr %14, align 8, !tbaa !9
  store ptr %5, ptr %15, align 8, !tbaa !51
  store ptr %6, ptr %16, align 8, !tbaa !51
  store ptr %7, ptr %17, align 8, !tbaa !51
  %27 = load ptr, ptr %10, align 8, !tbaa !11
  %28 = icmp eq ptr %27, null
  br i1 %28, label %29, label %30

29:                                               ; preds = %8
  store ptr @.str.3, ptr %10, align 8, !tbaa !11
  br label %30

30:                                               ; preds = %29, %8
  call void @llvm.lifetime.start.p0(i64 8, ptr %18) #13
  call void @llvm.lifetime.start.p0(i64 8, ptr %19) #13
  store i64 0, ptr %19, align 8, !tbaa !9
  call void @llvm.lifetime.start.p0(i64 8, ptr %20) #13
  store i64 0, ptr %20, align 8, !tbaa !9
  call void @llvm.lifetime.start.p0(i64 8, ptr %21) #13
  store i64 0, ptr %21, align 8, !tbaa !9
  call void @llvm.lifetime.start.p0(i64 8, ptr %22) #13
  %31 = load i64, ptr %13, align 8, !tbaa !9
  store i64 %31, ptr %22, align 8, !tbaa !9
  store i64 0, ptr %18, align 8, !tbaa !9
  br label %32

32:                                               ; preds = %134, %30
  %33 = load i64, ptr %18, align 8, !tbaa !9
  %34 = load i64, ptr %11, align 8, !tbaa !9
  %35 = icmp slt i64 %33, %34
  br i1 %35, label %36, label %135

36:                                               ; preds = %32
  call void @llvm.lifetime.start.p0(i64 8, ptr %23) #13
  call void @llvm.lifetime.start.p0(i64 8, ptr %24) #13
  %37 = load ptr, ptr %10, align 8, !tbaa !11
  %38 = load i64, ptr %11, align 8, !tbaa !9
  %39 = load i64, ptr %18, align 8, !tbaa !9
  %40 = call i64 @str_next_ofs(ptr noundef %37, i64 noundef %38, i64 noundef %39, ptr noundef %23)
  store i64 %40, ptr %24, align 8, !tbaa !9
  %41 = load i64, ptr %24, align 8, !tbaa !9
  %42 = icmp sle i64 %41, 0
  br i1 %42, label %43, label %48

43:                                               ; preds = %36
  %44 = load i64, ptr %11, align 8, !tbaa !9
  %45 = load i64, ptr %18, align 8, !tbaa !9
  %46 = load i64, ptr %23, align 8, !tbaa !9
  %47 = load ptr, ptr %10, align 8, !tbaa !11
  call void (ptr, ...) @debug_msg(ptr noundef @.str.268, i64 noundef %44, i64 noundef %45, i64 noundef %46, ptr noundef %47)
  store i32 2, ptr %25, align 4
  br label %132

48:                                               ; preds = %36
  %49 = load i64, ptr %19, align 8, !tbaa !9
  %50 = icmp eq i64 %49, 0
  br i1 %50, label %51, label %53

51:                                               ; preds = %48
  %52 = load i64, ptr %13, align 8, !tbaa !9
  br label %55

53:                                               ; preds = %48
  %54 = load i64, ptr %14, align 8, !tbaa !9
  br label %55

55:                                               ; preds = %53, %51
  %56 = phi i64 [ %52, %51 ], [ %54, %53 ]
  store i64 %56, ptr %22, align 8, !tbaa !9
  call void @llvm.lifetime.start.p0(i64 8, ptr %26) #13
  %57 = load i64, ptr %20, align 8, !tbaa !9
  %58 = load i64, ptr %23, align 8, !tbaa !9
  %59 = add nsw i64 %57, %58
  %60 = load i64, ptr %22, align 8, !tbaa !9
  %61 = add nsw i64 %59, %60
  %62 = add nsw i64 %61, 1
  store i64 %62, ptr %26, align 8, !tbaa !9
  %63 = load i64, ptr %12, align 8, !tbaa !9
  %64 = icmp ne i64 %63, 0
  br i1 %64, label %65, label %94

65:                                               ; preds = %55
  %66 = load i64, ptr %18, align 8, !tbaa !9
  %67 = icmp ne i64 %66, 0
  br i1 %67, label %68, label %94

68:                                               ; preds = %65
  %69 = load i64, ptr %26, align 8, !tbaa !9
  %70 = load i64, ptr %12, align 8, !tbaa !9
  %71 = icmp sge i64 %69, %70
  br i1 %71, label %72, label %94

72:                                               ; preds = %68
  %73 = load ptr, ptr %15, align 8, !tbaa !51
  %74 = icmp ne ptr %73, null
  br i1 %74, label %75, label %90

75:                                               ; preds = %72
  %76 = load ptr, ptr %15, align 8, !tbaa !51
  %77 = load ptr, ptr %10, align 8, !tbaa !11
  %78 = load i64, ptr %19, align 8, !tbaa !9
  %79 = load i64, ptr %21, align 8, !tbaa !9
  %80 = load i64, ptr %18, align 8, !tbaa !9
  %81 = load i64, ptr %21, align 8, !tbaa !9
  %82 = sub nsw i64 %80, %81
  %83 = load i64, ptr %22, align 8, !tbaa !9
  %84 = load ptr, ptr %16, align 8, !tbaa !51
  %85 = load ptr, ptr %17, align 8, !tbaa !51
  %86 = call zeroext i1 %76(ptr noundef %77, i64 noundef %78, i64 noundef %79, i64 noundef %82, i64 noundef %83, i1 noundef zeroext true, ptr noundef %84, ptr noundef %85)
  br i1 %86, label %87, label %89

87:                                               ; preds = %75
  %88 = load i64, ptr %19, align 8, !tbaa !9
  store i64 %88, ptr %9, align 8
  store i32 1, ptr %25, align 4
  br label %131

89:                                               ; preds = %75
  br label %90

90:                                               ; preds = %89, %72
  %91 = load i64, ptr %19, align 8, !tbaa !9
  %92 = add nsw i64 %91, 1
  store i64 %92, ptr %19, align 8, !tbaa !9
  %93 = load i64, ptr %18, align 8, !tbaa !9
  store i64 %93, ptr %21, align 8, !tbaa !9
  store i64 0, ptr %20, align 8, !tbaa !9
  br label %94

94:                                               ; preds = %90, %68, %65, %55
  %95 = load ptr, ptr %10, align 8, !tbaa !11
  %96 = load i64, ptr %18, align 8, !tbaa !9
  %97 = getelementptr inbounds i8, ptr %95, i64 %96
  %98 = load i8, ptr %97, align 1, !tbaa !13
  %99 = sext i8 %98 to i32
  %100 = icmp eq i32 %99, 10
  br i1 %100, label %101, label %124

101:                                              ; preds = %94
  %102 = load ptr, ptr %15, align 8, !tbaa !51
  %103 = icmp ne ptr %102, null
  br i1 %103, label %104, label %119

104:                                              ; preds = %101
  %105 = load ptr, ptr %15, align 8, !tbaa !51
  %106 = load ptr, ptr %10, align 8, !tbaa !11
  %107 = load i64, ptr %19, align 8, !tbaa !9
  %108 = load i64, ptr %21, align 8, !tbaa !9
  %109 = load i64, ptr %18, align 8, !tbaa !9
  %110 = load i64, ptr %21, align 8, !tbaa !9
  %111 = sub nsw i64 %109, %110
  %112 = load i64, ptr %22, align 8, !tbaa !9
  %113 = load ptr, ptr %16, align 8, !tbaa !51
  %114 = load ptr, ptr %17, align 8, !tbaa !51
  %115 = call zeroext i1 %105(ptr noundef %106, i64 noundef %107, i64 noundef %108, i64 noundef %111, i64 noundef %112, i1 noundef zeroext false, ptr noundef %113, ptr noundef %114)
  br i1 %115, label %116, label %118

116:                                              ; preds = %104
  %117 = load i64, ptr %19, align 8, !tbaa !9
  store i64 %117, ptr %9, align 8
  store i32 1, ptr %25, align 4
  br label %131

118:                                              ; preds = %104
  br label %119

119:                                              ; preds = %118, %101
  %120 = load i64, ptr %19, align 8, !tbaa !9
  %121 = add nsw i64 %120, 1
  store i64 %121, ptr %19, align 8, !tbaa !9
  %122 = load i64, ptr %18, align 8, !tbaa !9
  %123 = add nsw i64 %122, 1
  store i64 %123, ptr %21, align 8, !tbaa !9
  store i64 0, ptr %20, align 8, !tbaa !9
  br label %124

124:                                              ; preds = %119, %94
  %125 = load i64, ptr %24, align 8, !tbaa !9
  %126 = load i64, ptr %18, align 8, !tbaa !9
  %127 = add nsw i64 %126, %125
  store i64 %127, ptr %18, align 8, !tbaa !9
  %128 = load i64, ptr %23, align 8, !tbaa !9
  %129 = load i64, ptr %20, align 8, !tbaa !9
  %130 = add nsw i64 %129, %128
  store i64 %130, ptr %20, align 8, !tbaa !9
  store i32 0, ptr %25, align 4
  br label %131

131:                                              ; preds = %124, %116, %87
  call void @llvm.lifetime.end.p0(i64 8, ptr %26) #13
  br label %132

132:                                              ; preds = %131, %43
  call void @llvm.lifetime.end.p0(i64 8, ptr %24) #13
  call void @llvm.lifetime.end.p0(i64 8, ptr %23) #13
  %133 = load i32, ptr %25, align 4
  switch i32 %133, label %156 [
    i32 0, label %134
    i32 2, label %135
  ]

134:                                              ; preds = %132
  br label %32, !llvm.loop !337

135:                                              ; preds = %132, %32
  %136 = load ptr, ptr %15, align 8, !tbaa !51
  %137 = icmp ne ptr %136, null
  br i1 %137, label %138, label %153

138:                                              ; preds = %135
  %139 = load ptr, ptr %15, align 8, !tbaa !51
  %140 = load ptr, ptr %10, align 8, !tbaa !11
  %141 = load i64, ptr %19, align 8, !tbaa !9
  %142 = load i64, ptr %21, align 8, !tbaa !9
  %143 = load i64, ptr %18, align 8, !tbaa !9
  %144 = load i64, ptr %21, align 8, !tbaa !9
  %145 = sub nsw i64 %143, %144
  %146 = load i64, ptr %22, align 8, !tbaa !9
  %147 = load ptr, ptr %16, align 8, !tbaa !51
  %148 = load ptr, ptr %17, align 8, !tbaa !51
  %149 = call zeroext i1 %139(ptr noundef %140, i64 noundef %141, i64 noundef %142, i64 noundef %145, i64 noundef %146, i1 noundef zeroext false, ptr noundef %147, ptr noundef %148)
  br i1 %149, label %150, label %152

150:                                              ; preds = %138
  %151 = load i64, ptr %19, align 8, !tbaa !9
  store i64 %151, ptr %9, align 8
  store i32 1, ptr %25, align 4
  br label %156

152:                                              ; preds = %138
  br label %153

153:                                              ; preds = %152, %135
  %154 = load i64, ptr %19, align 8, !tbaa !9
  %155 = add nsw i64 %154, 1
  store i64 %155, ptr %9, align 8
  store i32 1, ptr %25, align 4
  br label %156

156:                                              ; preds = %153, %150, %132
  call void @llvm.lifetime.end.p0(i64 8, ptr %22) #13
  call void @llvm.lifetime.end.p0(i64 8, ptr %21) #13
  call void @llvm.lifetime.end.p0(i64 8, ptr %20) #13
  call void @llvm.lifetime.end.p0(i64 8, ptr %19) #13
  call void @llvm.lifetime.end.p0(i64 8, ptr %18) #13
  %157 = load i64, ptr %9, align 8
  ret i64 %157
}