; Function Attrs: nounwind uwtable
define internal fastcc i64 @str_for_each_row(ptr noundef %0, i64 noundef %1, i64 noundef %2, i64 noundef %3, i64 noundef %4, ptr noundef readonly %5, ptr noundef nonnull %6, ptr noundef %7) unnamed_addr #0 {
  %9 = alloca i64, align 8
  %10 = icmp eq ptr %0, null
  %spec.store.select = select i1 %10, ptr @.str.3, ptr %0
  %11 = icmp sgt i64 %1, 0
  br i1 %11, label %.lr.ph, label %.loopexit

.lr.ph:                                           ; preds = %8
  %.not223 = icmp eq i64 %2, 0
  %.not95 = icmp eq ptr %5, null
  call void @llvm.lifetime.start.p0(i64 8, ptr nonnull %9) #32
  %12 = call fastcc i64 @str_next_ofs(ptr noundef nonnull %spec.store.select, i64 noundef %1, i64 noundef 0, ptr noundef nonnull %9)
  %13 = icmp slt i64 %12, 1
  br i1 %.not223, label %.lr.ph.split.us, label %.lr.ph.split

.lr.ph.split.us:                                  ; preds = %.lr.ph
  br i1 %13, label %.thread105, label %.lr.ph208

.lr.ph208:                                        ; preds = %.lr.ph.split.us
  br i1 %.not95, label %.lr.ph208.split.us, label %.lr.ph208.split

.lr.ph208.split.us:                               ; preds = %.lr.ph208, %22
  %14 = phi i64 [ %23, %22 ], [ %12, %.lr.ph208 ]
  %.085125.us207.us = phi i64 [ %20, %22 ], [ 0, %.lr.ph208 ]
  %.079126.us206.us = phi i64 [ %.584.us.us, %22 ], [ 0, %.lr.ph208 ]
  %.070128.us204.us = phi i64 [ %.5.us.us, %22 ], [ 0, %.lr.ph208 ]
  %15 = getelementptr inbounds nuw i8, ptr %spec.store.select, i64 %.085125.us207.us
  %16 = load i8, ptr %15, align 1, !tbaa !4
  %17 = icmp eq i8 %16, 10
  %18 = add nuw nsw i64 %.085125.us207.us, 1
  %19 = zext i1 %17 to i64
  %.584.us.us = add nuw nsw i64 %.079126.us206.us, %19
  %.5.us.us = select i1 %17, i64 %18, i64 %.070128.us204.us
  %20 = add nuw nsw i64 %14, %.085125.us207.us
  call void @llvm.lifetime.end.p0(i64 8, ptr nonnull %9) #32
  %21 = icmp slt i64 %20, %1
  br i1 %21, label %22, label %..loopexit_crit_edge.split.us.split.us

22:                                               ; preds = %.lr.ph208.split.us
  call void @llvm.lifetime.start.p0(i64 8, ptr nonnull %9) #32
  %23 = call fastcc i64 @str_next_ofs(ptr noundef nonnull %spec.store.select, i64 noundef %1, i64 noundef %20, ptr noundef nonnull %9)
  %24 = icmp slt i64 %23, 1
  br i1 %24, label %..thread105.split.us_crit_edge.split.us, label %.lr.ph208.split.us

..thread105.split.us_crit_edge.split.us:          ; preds = %22
  %25 = icmp eq i64 %.079126.us206.us, 0
  %26 = select i1 %25, i64 %3, i64 %4
  br label %.thread105

..loopexit_crit_edge.split.us.split.us:           ; preds = %.lr.ph208.split.us
  %27 = icmp eq i64 %.079126.us206.us, 0
  %28 = select i1 %27, i64 %3, i64 %4
  br label %.loopexit

29:                                               ; preds = %44
  call void @llvm.lifetime.start.p0(i64 8, ptr nonnull %9) #32
  %30 = call fastcc i64 @str_next_ofs(ptr noundef nonnull %spec.store.select, i64 noundef %1, i64 noundef %45, ptr noundef nonnull %9)
  %31 = icmp slt i64 %30, 1
  br i1 %31, label %.thread105, label %.lr.ph208.split

.lr.ph208.split:                                  ; preds = %.lr.ph208, %29
  %32 = phi i64 [ %30, %29 ], [ %12, %.lr.ph208 ]
  %.085125.us207 = phi i64 [ %45, %29 ], [ 0, %.lr.ph208 ]
  %.079126.us206 = phi i64 [ %.584.us, %29 ], [ 0, %.lr.ph208 ]
  %.070128.us204 = phi i64 [ %.5.us, %29 ], [ 0, %.lr.ph208 ]
  %33 = icmp eq i64 %.079126.us206, 0
  %34 = select i1 %33, i64 %3, i64 %4
  %35 = getelementptr inbounds nuw i8, ptr %spec.store.select, i64 %.085125.us207
  %36 = load i8, ptr %35, align 1, !tbaa !4
  %37 = icmp eq i8 %36, 10
  br i1 %37, label %38, label %44

38:                                               ; preds = %.lr.ph208.split
  %39 = sub nsw i64 %.085125.us207, %.070128.us204
  %40 = call zeroext i1 %5(ptr noundef nonnull %spec.store.select, i64 noundef %.079126.us206, i64 noundef %.070128.us204, i64 noundef %39, i64 noundef %34, i1 noundef zeroext false, ptr noundef nonnull %6, ptr noundef %7) #32, !callees !339
  br i1 %40, label %.thread, label %41

41:                                               ; preds = %38
  %42 = add nsw i64 %.079126.us206, 1
  %43 = add nuw nsw i64 %.085125.us207, 1
  br label %44

44:                                               ; preds = %41, %.lr.ph208.split
  %.584.us = phi i64 [ %42, %41 ], [ %.079126.us206, %.lr.ph208.split ]
  %.5.us = phi i64 [ %43, %41 ], [ %.070128.us204, %.lr.ph208.split ]
  %45 = add nuw nsw i64 %32, %.085125.us207
  call void @llvm.lifetime.end.p0(i64 8, ptr nonnull %9) #32
  %46 = icmp slt i64 %45, %1
  br i1 %46, label %29, label %.loopexit

.lr.ph.split:                                     ; preds = %.lr.ph
  br i1 %13, label %.thread105, label %.lr.ph145

.lr.ph145:                                        ; preds = %.lr.ph.split
  br i1 %.not95, label %.lr.ph145.split.us, label %.lr.ph145.split.split

.lr.ph145.split.us:                               ; preds = %.lr.ph145, %50
  %47 = phi i64 [ %52, %50 ], [ %12, %.lr.ph145 ]
  %.085125144.us = phi i64 [ %67, %50 ], [ 0, %.lr.ph145 ]
  %.079126143.us = phi i64 [ %.584.us158, %50 ], [ 0, %.lr.ph145 ]
  %.074127142.us = phi i64 [ %51, %50 ], [ 0, %.lr.ph145 ]
  %.070128141.us = phi i64 [ %.5.us160, %50 ], [ 0, %.lr.ph145 ]
  %48 = icmp eq i64 %.079126143.us, 0
  %49 = select i1 %48, i64 %3, i64 %4
  %.not225 = icmp eq i64 %.085125144.us, 0
  br i1 %.not225, label %61, label %54

50:                                               ; preds = %61
  %.478.us159 = select i1 %64, i64 0, i64 %.276.us156
  %51 = add nsw i64 %68, %.478.us159
  call void @llvm.lifetime.start.p0(i64 8, ptr nonnull %9) #32
  %52 = call fastcc i64 @str_next_ofs(ptr noundef nonnull %spec.store.select, i64 noundef %1, i64 noundef %67, ptr noundef nonnull %9)
  %53 = icmp slt i64 %52, 1
  br i1 %53, label %.thread105, label %.lr.ph145.split.us

54:                                               ; preds = %.lr.ph145.split.us
  %55 = load i64, ptr %9, align 8, !tbaa !57
  %56 = add i64 %.074127142.us, 1
  %57 = add i64 %56, %49
  %58 = add i64 %57, %55
  %.not.us = icmp slt i64 %58, %2
  br i1 %.not.us, label %61, label %59

59:                                               ; preds = %54
  %60 = add nsw i64 %.079126143.us, 1
  br label %61

61:                                               ; preds = %59, %54, %.lr.ph145.split.us
  %.382.us155 = phi i64 [ %60, %59 ], [ %.079126143.us, %54 ], [ %.079126143.us, %.lr.ph145.split.us ]
  %.276.us156 = phi i64 [ 0, %59 ], [ %.074127142.us, %54 ], [ %.074127142.us, %.lr.ph145.split.us ]
  %.373.us157 = phi i64 [ %.085125144.us, %59 ], [ %.070128141.us, %54 ], [ %.070128141.us, %.lr.ph145.split.us ]
  %62 = getelementptr inbounds nuw i8, ptr %spec.store.select, i64 %.085125144.us
  %63 = load i8, ptr %62, align 1, !tbaa !4
  %64 = icmp eq i8 %63, 10
  %65 = add nuw nsw i64 %.085125144.us, 1
  %66 = zext i1 %64 to i64
  %.584.us158 = add nsw i64 %.382.us155, %66
  %.5.us160 = select i1 %64, i64 %65, i64 %.373.us157
  %67 = add nuw nsw i64 %47, %.085125144.us
  %68 = load i64, ptr %9, align 8, !tbaa !57
  call void @llvm.lifetime.end.p0(i64 8, ptr nonnull %9) #32
  %69 = icmp slt i64 %67, %1
  br i1 %69, label %50, label %.loopexit

70:                                               ; preds = %98
  %71 = add nsw i64 %100, %.478
  call void @llvm.lifetime.start.p0(i64 8, ptr nonnull %9) #32
  %72 = call fastcc i64 @str_next_ofs(ptr noundef nonnull %spec.store.select, i64 noundef %1, i64 noundef %99, ptr noundef nonnull %9)
  %73 = icmp slt i64 %72, 1
  br i1 %73, label %.thread105, label %.lr.ph145.split.split

.thread105:                                       ; preds = %70, %50, %29, %.lr.ph.split, %.lr.ph.split.us, %..thread105.split.us_crit_edge.split.us
  %.us-phi = phi i64 [ 0, %.lr.ph.split.us ], [ %20, %..thread105.split.us_crit_edge.split.us ], [ 0, %.lr.ph.split ], [ %45, %29 ], [ %67, %50 ], [ %99, %70 ]
  %.us-phi133 = phi i64 [ 0, %.lr.ph.split.us ], [ %.584.us.us, %..thread105.split.us_crit_edge.split.us ], [ 0, %.lr.ph.split ], [ %.584.us, %29 ], [ %.584.us158, %50 ], [ %.584, %70 ]
  %.us-phi134 = phi i64 [ 0, %.lr.ph.split.us ], [ %.5.us.us, %..thread105.split.us_crit_edge.split.us ], [ 0, %.lr.ph.split ], [ %.5.us, %29 ], [ %.5.us160, %50 ], [ %.5, %70 ]
  %.us-phi135 = phi i64 [ %3, %.lr.ph.split.us ], [ %26, %..thread105.split.us_crit_edge.split.us ], [ %3, %.lr.ph.split ], [ %34, %29 ], [ %49, %50 ], [ %77, %70 ]
  %74 = load i64, ptr %9, align 8, !tbaa !57
  call void (ptr, ...) @debug_msg(ptr noundef nonnull @.str.268, i64 noundef %1, i64 noundef %.us-phi, i64 noundef %74, ptr noundef nonnull %spec.store.select)
  call void @llvm.lifetime.end.p0(i64 8, ptr nonnull %9) #32
  br label %.loopexit

.lr.ph145.split.split:                            ; preds = %.lr.ph145, %70
  %75 = phi i64 [ %72, %70 ], [ %12, %.lr.ph145 ]
  %.085125144 = phi i64 [ %99, %70 ], [ 0, %.lr.ph145 ]
  %.079126143 = phi i64 [ %.584, %70 ], [ 0, %.lr.ph145 ]
  %.074127142 = phi i64 [ %71, %70 ], [ 0, %.lr.ph145 ]
  %.070128141 = phi i64 [ %.5, %70 ], [ 0, %.lr.ph145 ]
  %76 = icmp eq i64 %.079126143, 0
  %77 = select i1 %76, i64 %3, i64 %4
  %.not224 = icmp eq i64 %.085125144, 0
  br i1 %.not224, label %88, label %78

78:                                               ; preds = %.lr.ph145.split.split
  %79 = load i64, ptr %9, align 8, !tbaa !57
  %80 = add i64 %.074127142, 1
  %81 = add i64 %80, %77
  %82 = add i64 %81, %79
  %.not = icmp slt i64 %82, %2
  br i1 %.not, label %88, label %83

83:                                               ; preds = %78
  %84 = sub nsw i64 %.085125144, %.070128141
  %85 = call zeroext i1 %5(ptr noundef nonnull %spec.store.select, i64 noundef %.079126143, i64 noundef %.070128141, i64 noundef %84, i64 noundef %77, i1 noundef zeroext true, ptr noundef nonnull %6, ptr noundef %7) #32, !callees !339
  br i1 %85, label %.thread, label %86

86:                                               ; preds = %83
  %87 = add nsw i64 %.079126143, 1
  br label %88

88:                                               ; preds = %86, %78, %.lr.ph145.split.split
  %.382 = phi i64 [ %87, %86 ], [ %.079126143, %78 ], [ %.079126143, %.lr.ph145.split.split ]
  %.276 = phi i64 [ 0, %86 ], [ %.074127142, %78 ], [ %.074127142, %.lr.ph145.split.split ]
  %.373 = phi i64 [ %.085125144, %86 ], [ %.070128141, %78 ], [ %.070128141, %.lr.ph145.split.split ]
  %89 = getelementptr inbounds nuw i8, ptr %spec.store.select, i64 %.085125144
  %90 = load i8, ptr %89, align 1, !tbaa !4
  %91 = icmp eq i8 %90, 10
  br i1 %91, label %92, label %98

92:                                               ; preds = %88
  %93 = sub nsw i64 %.085125144, %.373
  %94 = call zeroext i1 %5(ptr noundef nonnull %spec.store.select, i64 noundef %.382, i64 noundef %.373, i64 noundef %93, i64 noundef %77, i1 noundef zeroext false, ptr noundef nonnull %6, ptr noundef %7) #32, !callees !339
  br i1 %94, label %.thread, label %95

95:                                               ; preds = %92
  %96 = add nsw i64 %.382, 1
  %97 = add nuw nsw i64 %.085125144, 1
  br label %98

.thread:                                          ; preds = %92, %83, %38
  %.us-phi136 = phi i64 [ %.079126.us206, %38 ], [ %.382, %92 ], [ %.079126143, %83 ]
  call void @llvm.lifetime.end.p0(i64 8, ptr nonnull %9) #32
  br label %107

98:                                               ; preds = %88, %95
  %.584 = phi i64 [ %96, %95 ], [ %.382, %88 ]
  %.478 = phi i64 [ 0, %95 ], [ %.276, %88 ]
  %.5 = phi i64 [ %97, %95 ], [ %.373, %88 ]
  %99 = add nuw nsw i64 %75, %.085125144
  %100 = load i64, ptr %9, align 8, !tbaa !57
  call void @llvm.lifetime.end.p0(i64 8, ptr nonnull %9) #32
  %101 = icmp slt i64 %99, %1
  br i1 %101, label %70, label %.loopexit

.loopexit:                                        ; preds = %98, %61, %44, %8, %..loopexit_crit_edge.split.us.split.us, %.thread105
  %.085124 = phi i64 [ %.us-phi, %.thread105 ], [ 0, %8 ], [ %20, %..loopexit_crit_edge.split.us.split.us ], [ %45, %44 ], [ %67, %61 ], [ %99, %98 ]
  %.079121 = phi i64 [ %.us-phi133, %.thread105 ], [ 0, %8 ], [ %.584.us.us, %..loopexit_crit_edge.split.us.split.us ], [ %.584.us, %44 ], [ %.584.us158, %61 ], [ %.584, %98 ]
  %.070118 = phi i64 [ %.us-phi134, %.thread105 ], [ 0, %8 ], [ %.5.us.us, %..loopexit_crit_edge.split.us.split.us ], [ %.5.us, %44 ], [ %.5.us160, %61 ], [ %.5, %98 ]
  %.067115 = phi i64 [ %.us-phi135, %.thread105 ], [ %3, %8 ], [ %28, %..loopexit_crit_edge.split.us.split.us ], [ %34, %44 ], [ %49, %61 ], [ %77, %98 ]
  %.not97 = icmp eq ptr %5, null
  br i1 %.not97, label %105, label %102

102:                                              ; preds = %.loopexit
  %103 = sub nsw i64 %.085124, %.070118
  %104 = call zeroext i1 %5(ptr noundef nonnull %spec.store.select, i64 noundef %.079121, i64 noundef %.070118, i64 noundef %103, i64 noundef %.067115, i1 noundef zeroext false, ptr noundef nonnull %6, ptr noundef %7) #32, !callees !339
  br i1 %104, label %107, label %105

105:                                              ; preds = %102, %.loopexit
  %106 = add nsw i64 %.079121, 1
  br label %107

107:                                              ; preds = %.thread, %102, %105
  %.3 = phi i64 [ %106, %105 ], [ %.079121, %102 ], [ %.us-phi136, %.thread ]
  ret i64 %.3
}